target datalayout = "e-m:e-p270:32:32-p271:32:32-p272:64:64-i64:64-i128:128-f80:128-n8:16:32:64-S128"
target triple = "x86_64-unknown-linux-gnu"

%"class.std::vector" = type { %"struct.std::_Vector_base" }
%"struct.std::_Vector_base" = type { %"struct.std::_Vector_base<facebook::velox::ByteRange, std::allocator<facebook::velox::ByteRange>>::_Vector_impl" }
%"struct.std::_Vector_base<facebook::velox::ByteRange, std::allocator<facebook::velox::ByteRange>>::_Vector_impl" = type { %"struct.std::_Vector_base<facebook::velox::ByteRange, std::allocator<facebook::velox::ByteRange>>::_Vector_impl_data" }
%"struct.std::_Vector_base<facebook::velox::ByteRange, std::allocator<facebook::velox::ByteRange>>::_Vector_impl_data" = type { ptr, ptr, ptr }
%"class.facebook::velox::ByteOutputStream" = type <{ ptr, i8, i8, i8, [5 x i8], %"class.std::vector", i64, ptr, i32, [4 x i8] }>

; Function Attrs: mustprogress nounwind uwtable
define linkonce_odr noundef i32 @_ZN8facebook5velox4bits7roundUpIimEET_S3_T0_(i32 noundef %value, i64 noundef %factor) #3 comdat {
entry:
  %value.addr = alloca i32, align 4
  %factor.addr = alloca i64, align 8
  store i32 %value, ptr %value.addr, align 4
  store i64 %factor, ptr %factor.addr, align 8
  %0 = load i32, ptr %value.addr, align 4
  %conv = sext i32 %0 to i64
  %1 = load i64, ptr %factor.addr, align 8
  %sub = sub i64 %1, 1
  %add = add i64 %conv, %sub
  %2 = load i64, ptr %factor.addr, align 8
  %div = udiv i64 %add, %2
  %3 = load i64, ptr %factor.addr, align 8
  %mul = mul i64 %div, %3
  %conv1 = trunc i64 %mul to i32
  ret i32 %conv1
}

; Function Attrs: mustprogress nounwind uwtable
define linkonce_odr noundef i32 @_ZN8facebook5velox4bits7roundUpIiiEET_S3_T0_(i32 noundef %value, i32 noundef %factor) #3 comdat {
entry:
  %value.addr = alloca i32, align 4
  %factor.addr = alloca i32, align 4
  store i32 %value, ptr %value.addr, align 4
  store i32 %factor, ptr %factor.addr, align 4
  %0 = load i32, ptr %value.addr, align 4
  %1 = load i32, ptr %factor.addr, align 4
  %sub = sub nsw i32 %1, 1
  %add = add nsw i32 %0, %sub
  %2 = load i32, ptr %factor.addr, align 4
  %div = sdiv i32 %add, %2
  %3 = load i32, ptr %factor.addr, align 4
  %mul = mul nsw i32 %div, %3
  ret i32 %mul
}

; Function Attrs: mustprogress uwtable
define noundef i32 @_ZNK8facebook5velox16ByteOutputStream12newRangeSizeEi(ptr noundef nonnull align 8 dereferenceable(60) %this, i32 noundef %bytes) #0 align 2 {
entry:
  %retval = alloca i32, align 4
  %this.addr = alloca ptr, align 8
  %bytes.addr = alloca i32, align 4
  %newSize = alloca i32, align 4
  store ptr %this, ptr %this.addr, align 8
  store i32 %bytes, ptr %bytes.addr, align 4
  %this1 = load ptr, ptr %this.addr, align 8
  %allocatedBytes_ = getelementptr inbounds %"class.facebook::velox::ByteOutputStream", ptr %this1, i32 0, i32 6
  %0 = load i64, ptr %allocatedBytes_, align 8
  %1 = load i32, ptr %bytes.addr, align 4
  %conv = sext i32 %1 to i64
  %add = add nsw i64 %0, %conv
  %conv2 = trunc i64 %add to i32
  store i32 %conv2, ptr %newSize, align 4
  %2 = load i32, ptr %newSize, align 4
  %cmp = icmp slt i32 %2, 128
  br i1 %cmp, label %if.then, label %if.end

if.then:                                          ; preds = %entry
  store i32 128, ptr %retval, align 4
  br label %return

if.end:                                           ; preds = %entry
  %3 = load i32, ptr %newSize, align 4
  %cmp3 = icmp slt i32 %3, 512
  br i1 %cmp3, label %if.then4, label %if.end5

if.then4:                                         ; preds = %if.end
  %4 = load i32, ptr %bytes.addr, align 4
  %call = call noundef i32 @_ZN8facebook5velox4bits7roundUpIiiEET_S3_T0_(i32 noundef %4, i32 noundef 128)
  store i32 %call, ptr %retval, align 4
  br label %return

if.end5:                                          ; preds = %if.end
  %5 = load i32, ptr %newSize, align 4
  %conv6 = sext i32 %5 to i64
  %cmp7 = icmp ult i64 %conv6, 4096
  br i1 %cmp7, label %if.then8, label %if.end10

if.then8:                                         ; preds = %if.end5
  %6 = load i32, ptr %bytes.addr, align 4
  %call9 = call noundef i32 @_ZN8facebook5velox4bits7roundUpIiiEET_S3_T0_(i32 noundef %6, i32 noundef 512)
  store i32 %call9, ptr %retval, align 4
  br label %return

if.end10:                                         ; preds = %if.end5
  %7 = load i32, ptr %bytes.addr, align 4
  %call11 = call noundef i32 @_ZN8facebook5velox4bits7roundUpIimEET_S3_T0_(i32 noundef %7, i64 noundef 4096)
  store i32 %call11, ptr %retval, align 4
  br label %return

return:                                           ; preds = %if.end10, %if.then8, %if.then4, %if.then
  %8 = load i32, ptr %retval, align 4
  ret i32 %8
}