; Function Attrs: mustprogress nofree norecurse nosync nounwind willreturn memory(argmem: read) uwtable
define noundef i32 @_ZNK8facebook5velox16ByteOutputStream12newRangeSizeEi(ptr nocapture noundef nonnull readonly align 8 dereferenceable(60) %this, i32 noundef %bytes) local_unnamed_addr #10 align 2 {
entry:
  %allocatedBytes_ = getelementptr inbounds i8, ptr %this, i64 40
  %0 = load i64, ptr %allocatedBytes_, align 8
  %1 = trunc i64 %0 to i32
  %conv2 = add i32 %1, %bytes
  %cmp = icmp slt i32 %conv2, 128
  br i1 %cmp, label %return, label %if.end

if.end:                                           ; preds = %entry
  %cmp3 = icmp ult i32 %conv2, 512
  br i1 %cmp3, label %if.then4, label %if.end5

if.then4:                                         ; preds = %if.end
  %add.i = add i32 %bytes, 127
  %2 = srem i32 %add.i, 128
  %mul.i = sub nsw i32 %add.i, %2
  br label %return

if.end5:                                          ; preds = %if.end
  %cmp7 = icmp ult i32 %conv2, 4096
  br i1 %cmp7, label %if.then8, label %if.end10

if.then8:                                         ; preds = %if.end5
  %add.i7 = add i32 %bytes, 511
  %3 = srem i32 %add.i7, 512
  %mul.i8 = sub nsw i32 %add.i7, %3
  br label %return

if.end10:                                         ; preds = %if.end5
  %add.i9 = add i32 %bytes, 4095
  %mul.i10 = and i32 %add.i9, -4096
  br label %return

return:                                           ; preds = %entry, %if.end10, %if.then8, %if.then4
  %retval.0 = phi i32 [ %mul.i, %if.then4 ], [ %mul.i8, %if.then8 ], [ %mul.i10, %if.end10 ], [ 128, %entry ]
  ret i32 %retval.0
}